; Function Attrs: nounwind sspstrong uwtable
define dso_local void @timer_mod_anticipate(ptr noundef %ts, i64 noundef %expire_time) local_unnamed_addr #0 {
entry:
  %scale = getelementptr inbounds nuw i8, ptr %ts, i64 44
  %0 = load i32, ptr %scale, align 4
  %conv = sext i32 %0 to i64
  %mul = mul i64 %expire_time, %conv
  tail call void @timer_mod_anticipate_ns(ptr noundef %ts, i64 noundef %mul)
  ret void
}